target datalayout = "e-m:e-p270:32:32-p271:32:32-p272:64:64-i64:64-i128:128-f80:128-n8:16:32:64-S128"
target triple = "x86_64-pc-linux-gnu"

@_ZN7rocksdb14ThreadLocalPtr10StaticMeta4tls_E = thread_local global ptr null, align 8

; Function Attrs: mustprogress nounwind uwtable
define internal void @_ZZN7rocksdb14ThreadLocalPtr10StaticMetaC1EvEN1AD2Ev(ptr noundef nonnull align 1 dereferenceable(1) %0) unnamed_addr #6 align 2 personality ptr @__gxx_personality_v0 {
  %2 = alloca ptr, align 8
  store ptr %0, ptr %2, align 8, !tbaa !74
  %3 = call align 8 ptr @llvm.threadlocal.address.p0(ptr align 8 @_ZN7rocksdb14ThreadLocalPtr10StaticMeta4tls_E)
  %4 = load ptr, ptr %3, align 8, !tbaa !11
  %5 = icmp ne ptr %4, null
  br i1 %5, label %6, label %10

6:                                                ; preds = %1
  %7 = call align 8 ptr @llvm.threadlocal.address.p0(ptr align 8 @_ZN7rocksdb14ThreadLocalPtr10StaticMeta4tls_E)
  %8 = load ptr, ptr %7, align 8, !tbaa !11
  invoke void @_ZN7rocksdb14ThreadLocalPtr10StaticMeta12OnThreadExitEPv(ptr noundef %8)
          to label %9 unwind label %11

9:                                                ; preds = %6
  br label %10

10:                                               ; preds = %9, %1
  ret void

11:                                               ; preds = %6
  %12 = landingpad { ptr, i32 }
          catch ptr null
  %13 = extractvalue { ptr, i32 } %12, 0
  call void @__clang_call_terminate(ptr %13) #21
  unreachable
}