; Function Attrs: mustprogress nounwind uwtable
define internal void @_ZZN7rocksdb14ThreadLocalPtr10StaticMetaC1EvEN1AD2Ev(ptr nonnull readnone align 1 captures(none) %0) unnamed_addr #8 align 2 personality ptr @__gxx_personality_v0 {
  %2 = tail call align 8 ptr @llvm.threadlocal.address.p0(ptr align 8 @_ZN7rocksdb14ThreadLocalPtr10StaticMeta4tls_E)
  %3 = load ptr, ptr %2, align 8, !tbaa !63
  %.not = icmp eq ptr %3, null
  br i1 %.not, label %5, label %4

4:                                                ; preds = %1
  invoke void @_ZN7rocksdb14ThreadLocalPtr10StaticMeta12OnThreadExitEPv(ptr noundef nonnull %3)
          to label %5 unwind label %6

5:                                                ; preds = %4, %1
  ret void

6:                                                ; preds = %4
  %7 = landingpad { ptr, i32 }
          catch ptr null
  %8 = extractvalue { ptr, i32 } %7, 0
  tail call void @__clang_call_terminate(ptr %8) #22
  unreachable
}